target datalayout = "e-m:e-p270:32:32-p271:32:32-p272:64:64-i64:64-i128:128-f80:128-n8:16:32:64-S128"
target triple = "x86_64-pc-linux-gnu"

%struct.XLogRecData = type { ptr, ptr, i32 }
%struct.registered_buffer = type { i8, i8, %struct.RelFileLocator, i32, i32, ptr, i32, ptr, ptr, [2 x %struct.XLogRecData], [8196 x i8] }
%struct.RelFileLocator = type { i32, i32, i32 }

@.str.1 = private unnamed_addr constant [13 x i8] c"xloginsert.c\00", align 1
@max_registered_buffers = internal global i32 0, align 4
@registered_buffers = internal global ptr null, align 8
@max_registered_block_id = internal global i32 0, align 4
@.str.4 = private unnamed_addr constant [28 x i8] c"too many registered buffers\00", align 1
@__func__.XLogRegisterBuffer = private unnamed_addr constant [19 x i8] c"XLogRegisterBuffer\00", align 1
@LocalBufferBlockPointers = external global ptr, align 8
@BufferBlocks = external global ptr, align 8

; Function Attrs: inlinehint nounwind uwtable
define internal ptr @BufferGetBlock(i32 noundef %0) #5 {
  %2 = alloca ptr, align 8
  %3 = alloca i32, align 4
  store i32 %0, ptr %3, align 4
  %4 = load i32, ptr %3, align 4
  %5 = icmp slt i32 %4, 0
  br i1 %5, label %6, label %14

6:                                                ; preds = %1
  %7 = load ptr, ptr @LocalBufferBlockPointers, align 8
  %8 = load i32, ptr %3, align 4
  %9 = sub i32 0, %8
  %10 = sub i32 %9, 1
  %11 = sext i32 %10 to i64
  %12 = getelementptr inbounds ptr, ptr %7, i64 %11
  %13 = load ptr, ptr %12, align 8
  store ptr %13, ptr %2, align 8
  br label %21

14:                                               ; preds = %1
  %15 = load ptr, ptr @BufferBlocks, align 8
  %16 = load i32, ptr %3, align 4
  %17 = sub i32 %16, 1
  %18 = sext i32 %17 to i64
  %19 = mul i64 %18, 8192
  %20 = getelementptr inbounds nuw i8, ptr %15, i64 %19
  store ptr %20, ptr %2, align 8
  br label %21

21:                                               ; preds = %14, %6
  %22 = load ptr, ptr %2, align 8
  ret ptr %22
}

; Function Attrs: inlinehint nounwind uwtable
define internal ptr @BufferGetPage(i32 noundef %0) #5 {
  %2 = alloca i32, align 4
  store i32 %0, ptr %2, align 4
  %3 = load i32, ptr %2, align 4
  %4 = call ptr @BufferGetBlock(i32 noundef %3)
  ret ptr %4
}

; Function Attrs: nounwind uwtable
define dso_local void @XLogRegisterBuffer(i8 noundef zeroext %0, i32 noundef %1, i8 noundef zeroext %2) #0 {
  %4 = alloca i8, align 1
  %5 = alloca i32, align 4
  %6 = alloca i8, align 1
  %7 = alloca ptr, align 8
  store i8 %0, ptr %4, align 1
  store i32 %1, ptr %5, align 4
  store i8 %2, ptr %6, align 1
  call void @llvm.lifetime.start.p0(i64 8, ptr %7) #9
  %8 = load i8, ptr %4, align 1
  %9 = zext i8 %8 to i32
  %10 = load i32, ptr @max_registered_block_id, align 4
  %11 = icmp sge i32 %9, %10
  br i1 %11, label %12, label %32

12:                                               ; preds = %3
  %13 = load i8, ptr %4, align 1
  %14 = zext i8 %13 to i32
  %15 = load i32, ptr @max_registered_buffers, align 4
  %16 = icmp sge i32 %14, %15
  br i1 %16, label %17, label %28

17:                                               ; preds = %12
  br label %18

18:                                               ; preds = %17
  br i1 true, label %19, label %21

19:                                               ; preds = %18
  %20 = call zeroext i1 @errstart_cold(i32 noundef 21, ptr noundef null) #8
  br i1 %20, label %23, label %25

21:                                               ; preds = %18
  %22 = call zeroext i1 @errstart(i32 noundef 21, ptr noundef null)
  br i1 %22, label %23, label %25

23:                                               ; preds = %21, %19
  %24 = call i32 (ptr, ...) @errmsg_internal(ptr noundef @.str.4)
  call void @errfinish(ptr noundef @.str.1, i32 noundef 267, ptr noundef @__func__.XLogRegisterBuffer)
  br label %25

25:                                               ; preds = %23, %21, %19
  unreachable

26:                                               ; No predecessors!
  br label %27

27:                                               ; preds = %26
  br label %28

28:                                               ; preds = %27, %12
  %29 = load i8, ptr %4, align 1
  %30 = zext i8 %29 to i32
  %31 = add i32 %30, 1
  store i32 %31, ptr @max_registered_block_id, align 4
  br label %32

32:                                               ; preds = %28, %3
  %33 = load ptr, ptr @registered_buffers, align 8
  %34 = load i8, ptr %4, align 1
  %35 = zext i8 %34 to i64
  %36 = getelementptr inbounds nuw %struct.registered_buffer, ptr %33, i64 %35
  store ptr %36, ptr %7, align 8
  %37 = load i32, ptr %5, align 4
  %38 = load ptr, ptr %7, align 8
  %39 = getelementptr inbounds nuw %struct.registered_buffer, ptr %38, i32 0, i32 2
  %40 = load ptr, ptr %7, align 8
  %41 = getelementptr inbounds nuw %struct.registered_buffer, ptr %40, i32 0, i32 3
  %42 = load ptr, ptr %7, align 8
  %43 = getelementptr inbounds nuw %struct.registered_buffer, ptr %42, i32 0, i32 4
  call void @BufferGetTag(i32 noundef %37, ptr noundef %39, ptr noundef %41, ptr noundef %43)
  %44 = load i32, ptr %5, align 4
  %45 = call ptr @BufferGetPage(i32 noundef %44)
  %46 = load ptr, ptr %7, align 8
  %47 = getelementptr inbounds nuw %struct.registered_buffer, ptr %46, i32 0, i32 5
  store ptr %45, ptr %47, align 8
  %48 = load i8, ptr %6, align 1
  %49 = load ptr, ptr %7, align 8
  %50 = getelementptr inbounds nuw %struct.registered_buffer, ptr %49, i32 0, i32 1
  store i8 %48, ptr %50, align 1
  %51 = load ptr, ptr %7, align 8
  %52 = getelementptr inbounds nuw %struct.registered_buffer, ptr %51, i32 0, i32 7
  %53 = load ptr, ptr %7, align 8
  %54 = getelementptr inbounds nuw %struct.registered_buffer, ptr %53, i32 0, i32 8
  store ptr %52, ptr %54, align 8
  %55 = load ptr, ptr %7, align 8
  %56 = getelementptr inbounds nuw %struct.registered_buffer, ptr %55, i32 0, i32 6
  store i32 0, ptr %56, align 8
  %57 = load ptr, ptr %7, align 8
  %58 = getelementptr inbounds nuw %struct.registered_buffer, ptr %57, i32 0, i32 0
  store i8 1, ptr %58, align 8
  call void @llvm.lifetime.end.p0(i64 8, ptr %7) #9
  ret void
}