; Function Attrs: nounwind uwtable
define dso_local void @XLogRegisterBuffer(i8 noundef zeroext %0, i32 noundef %1, i8 noundef zeroext %2) local_unnamed_addr #0 {
  %4 = zext i8 %0 to i32
  %5 = load i32, ptr @max_registered_block_id, align 4
  %.not = icmp sgt i32 %5, %4
  br i1 %.not, label %13, label %6

6:                                                ; preds = %3
  %7 = load i32, ptr @max_registered_buffers, align 4
  %.not15 = icmp sgt i32 %7, %4
  br i1 %.not15, label %11, label %8

8:                                                ; preds = %6
  %9 = tail call zeroext i1 @errstart_cold(i32 noundef 21, ptr noundef null) #11
  tail call void @llvm.assume(i1 %9)
  %10 = tail call i32 (ptr, ...) @errmsg_internal(ptr noundef nonnull @.str.4) #10
  tail call void @errfinish(ptr noundef nonnull @.str.1, i32 noundef 267, ptr noundef nonnull @__func__.XLogRegisterBuffer) #10
  unreachable

11:                                               ; preds = %6
  %12 = add nuw nsw i32 %4, 1
  store i32 %12, ptr @max_registered_block_id, align 4
  br label %13

13:                                               ; preds = %11, %3
  %14 = load ptr, ptr @registered_buffers, align 8
  %15 = zext i8 %0 to i64
  %16 = getelementptr inbounds nuw %struct.registered_buffer, ptr %14, i64 %15
  %17 = getelementptr inbounds nuw i8, ptr %16, i64 4
  %18 = getelementptr inbounds nuw i8, ptr %16, i64 16
  %19 = getelementptr inbounds nuw i8, ptr %16, i64 20
  tail call void @BufferGetTag(i32 noundef %1, ptr noundef nonnull %17, ptr noundef nonnull %18, ptr noundef nonnull %19) #10
  %20 = icmp slt i32 %1, 0
  br i1 %20, label %21, label %27

21:                                               ; preds = %13
  %22 = load ptr, ptr @LocalBufferBlockPointers, align 8
  %23 = xor i32 %1, -1
  %24 = zext nneg i32 %23 to i64
  %25 = getelementptr inbounds nuw ptr, ptr %22, i64 %24
  %26 = load ptr, ptr %25, align 8
  br label %BufferGetPage.exit

27:                                               ; preds = %13
  %28 = load ptr, ptr @BufferBlocks, align 8
  %29 = add nsw i32 %1, -1
  %30 = sext i32 %29 to i64
  %31 = shl nsw i64 %30, 13
  %32 = getelementptr inbounds nuw i8, ptr %28, i64 %31
  br label %BufferGetPage.exit

BufferGetPage.exit:                               ; preds = %21, %27
  %.0.i.i = phi ptr [ %26, %21 ], [ %32, %27 ]
  %33 = getelementptr inbounds nuw i8, ptr %16, i64 24
  store ptr %.0.i.i, ptr %33, align 8
  %34 = getelementptr inbounds nuw i8, ptr %16, i64 1
  store i8 %2, ptr %34, align 1
  %35 = getelementptr inbounds nuw i8, ptr %16, i64 40
  %36 = getelementptr inbounds nuw i8, ptr %16, i64 48
  store ptr %35, ptr %36, align 8
  %37 = getelementptr inbounds nuw i8, ptr %16, i64 32
  store i32 0, ptr %37, align 8
  store i8 1, ptr %16, align 8
  ret void
}